; Function Attrs: mustprogress ssp uwtable
define noundef zeroext i1 @_ZN6open3d2io3rpc15ReplyIsOKStatusERKN3zmq9message_tERm(ptr noundef nonnull align 8 dereferenceable(64) %0, ptr noundef nonnull align 8 dereferenceable(8) %1) local_unnamed_addr #4 personality ptr @__gxx_personality_v0 {
  %3 = alloca i8, align 1
  %4 = alloca %"class.std::shared_ptr", align 8
  call void @llvm.lifetime.start.p0(i64 1, ptr nonnull %3) #40
  call void @llvm.lifetime.start.p0(i64 16, ptr nonnull %4) #40
  call void @_ZN6open3d2io3rpc21UnpackStatusFromReplyERKN3zmq9message_tERmRb(ptr dead_on_unwind nonnull writable sret(%"class.std::shared_ptr") align 8 %4, ptr noundef nonnull align 8 dereferenceable(64) %0, ptr noundef nonnull align 8 dereferenceable(8) %1, ptr noundef nonnull align 1 dereferenceable(1) %3)
  %5 = load i8, ptr %3, align 1, !tbaa !38, !range !144, !noundef !145
  %6 = trunc nuw i8 %5 to i1
  br i1 %6, label %7, label %12

7:                                                ; preds = %2
  %8 = load ptr, ptr %4, align 8, !tbaa !101
  %.not = icmp eq ptr %8, null
  br i1 %.not, label %12, label %9

9:                                                ; preds = %7
  %10 = load i32, ptr %8, align 8, !tbaa !47
  %11 = icmp eq i32 %10, 0
  br i1 %11, label %13, label %12

12:                                               ; preds = %9, %7, %2
  br label %13

13:                                               ; preds = %9, %12
  %.0 = phi i1 [ false, %12 ], [ true, %9 ]
  %14 = getelementptr inbounds nuw i8, ptr %4, i64 8
  %15 = load ptr, ptr %14, align 8, !tbaa !109
  %.not.i.i = icmp eq ptr %15, null
  br i1 %.not.i.i, label %_ZNSt12__shared_ptrIN6open3d2io3rpc8messages6StatusELN9__gnu_cxx12_Lock_policyE2EED2Ev.exit, label %16

16:                                               ; preds = %13
  %17 = getelementptr inbounds nuw i8, ptr %15, i64 8
  %18 = load atomic i64, ptr %17 acquire, align 8
  %19 = icmp eq i64 %18, 4294967297
  %20 = trunc i64 %18 to i32
  br i1 %19, label %21, label %29

21:                                               ; preds = %16
  store i32 0, ptr %17, align 8, !tbaa !106
  %22 = getelementptr inbounds nuw i8, ptr %15, i64 12
  store i32 0, ptr %22, align 4, !tbaa !108
  %23 = load ptr, ptr %15, align 8, !tbaa !96
  %24 = getelementptr inbounds nuw i8, ptr %23, i64 16
  %25 = load ptr, ptr %24, align 8
  tail call void %25(ptr noundef nonnull align 8 dereferenceable(16) %15) #40
  %26 = load ptr, ptr %15, align 8, !tbaa !96
  %27 = getelementptr inbounds nuw i8, ptr %26, i64 24
  %28 = load ptr, ptr %27, align 8
  tail call void %28(ptr noundef nonnull align 8 dereferenceable(16) %15) #40
  br label %_ZNSt12__shared_ptrIN6open3d2io3rpc8messages6StatusELN9__gnu_cxx12_Lock_policyE2EED2Ev.exit

29:                                               ; preds = %16
  %30 = load i8, ptr @__libc_single_threaded, align 1, !tbaa !46
  %.not.i.i.i = icmp eq i8 %30, 0
  br i1 %.not.i.i.i, label %33, label %31

31:                                               ; preds = %29
  %32 = add nsw i32 %20, -1
  store i32 %32, ptr %17, align 4, !tbaa !28
  br label %_ZN9__gnu_cxx27__exchange_and_add_dispatchEPii.exit.i.i.i

33:                                               ; preds = %29
  %34 = atomicrmw volatile add ptr %17, i32 -1 acq_rel, align 4
  br label %_ZN9__gnu_cxx27__exchange_and_add_dispatchEPii.exit.i.i.i

_ZN9__gnu_cxx27__exchange_and_add_dispatchEPii.exit.i.i.i: ; preds = %33, %31
  %.0.i.i.i.i = phi i32 [ %20, %31 ], [ %34, %33 ]
  %35 = icmp eq i32 %.0.i.i.i.i, 1
  br i1 %35, label %36, label %_ZNSt12__shared_ptrIN6open3d2io3rpc8messages6StatusELN9__gnu_cxx12_Lock_policyE2EED2Ev.exit, !prof !22

36:                                               ; preds = %_ZN9__gnu_cxx27__exchange_and_add_dispatchEPii.exit.i.i.i
  tail call void @_ZNSt16_Sp_counted_baseILN9__gnu_cxx12_Lock_policyE2EE24_M_release_last_use_coldEv(ptr noundef nonnull align 8 dereferenceable(16) %15) #40
  br label %_ZNSt12__shared_ptrIN6open3d2io3rpc8messages6StatusELN9__gnu_cxx12_Lock_policyE2EED2Ev.exit

_ZNSt12__shared_ptrIN6open3d2io3rpc8messages6StatusELN9__gnu_cxx12_Lock_policyE2EED2Ev.exit: ; preds = %13, %21, %_ZN9__gnu_cxx27__exchange_and_add_dispatchEPii.exit.i.i.i, %36
  call void @llvm.lifetime.end.p0(i64 16, ptr nonnull %4) #40
  call void @llvm.lifetime.end.p0(i64 1, ptr nonnull %3) #40
  ret i1 %.0
}